target datalayout = "e-m:e-p270:32:32-p271:32:32-p272:64:64-i64:64-i128:128-f80:128-n8:16:32:64-S128"
target triple = "x86_64-pc-linux-gnu"

%struct.mbedtls_ecp_group = type { i32, %struct.mbedtls_mpi, %struct.mbedtls_mpi, %struct.mbedtls_mpi, %struct.mbedtls_ecp_point, %struct.mbedtls_mpi, i64, i64, i32, ptr, ptr, ptr, ptr, ptr, i64 }
%struct.mbedtls_ecp_point = type { %struct.mbedtls_mpi, %struct.mbedtls_mpi, %struct.mbedtls_mpi }
%struct.mbedtls_mpi = type { ptr, i16, i16 }
%struct.mbedtls_ecdh_context = type { i8, i32, i32, %union.anon }
%union.anon = type { %struct.mbedtls_ecdh_context_mbed }
%struct.mbedtls_ecdh_context_mbed = type { %struct.mbedtls_ecp_group, %struct.mbedtls_mpi, %struct.mbedtls_ecp_point, %struct.mbedtls_ecp_point, %struct.mbedtls_mpi }

; Function Attrs: nounwind uwtable
define internal i32 @ecdh_compute_shared_restartable(ptr noundef %0, ptr noundef %1, ptr noundef %2, ptr noundef %3, ptr noundef %4, ptr noundef %5, ptr noundef %6) #0 {
  %8 = alloca ptr, align 8
  %9 = alloca ptr, align 8
  %10 = alloca ptr, align 8
  %11 = alloca ptr, align 8
  %12 = alloca ptr, align 8
  %13 = alloca ptr, align 8
  %14 = alloca ptr, align 8
  %15 = alloca i32, align 4
  %16 = alloca %struct.mbedtls_ecp_point, align 8
  store ptr %0, ptr %8, align 8, !tbaa !7
  store ptr %1, ptr %9, align 8, !tbaa !10
  store ptr %2, ptr %10, align 8, !tbaa !12
  store ptr %3, ptr %11, align 8, !tbaa !10
  store ptr %4, ptr %12, align 8, !tbaa !14
  store ptr %5, ptr %13, align 8, !tbaa !14
  store ptr %6, ptr %14, align 8, !tbaa !14
  call void @llvm.lifetime.start.p0(i64 4, ptr %15) #4
  store i32 -110, ptr %15, align 4, !tbaa !3
  call void @llvm.lifetime.start.p0(i64 48, ptr %16) #4
  call void @mbedtls_ecp_point_init(ptr noundef %16)
  br label %17

17:                                               ; preds = %7
  %18 = load ptr, ptr %8, align 8, !tbaa !7
  %19 = load ptr, ptr %11, align 8, !tbaa !10
  %20 = load ptr, ptr %10, align 8, !tbaa !12
  %21 = load ptr, ptr %12, align 8, !tbaa !14
  %22 = load ptr, ptr %13, align 8, !tbaa !14
  %23 = load ptr, ptr %14, align 8, !tbaa !14
  %24 = call i32 @mbedtls_ecp_mul_restartable(ptr noundef %18, ptr noundef %16, ptr noundef %19, ptr noundef %20, ptr noundef %21, ptr noundef %22, ptr noundef %23)
  store i32 %24, ptr %15, align 4, !tbaa !3
  %25 = icmp ne i32 %24, 0
  br i1 %25, label %26, label %27

26:                                               ; preds = %17
  br label %43

27:                                               ; preds = %17
  br label %28

28:                                               ; preds = %27
  br label %29

29:                                               ; preds = %28
  %30 = call i32 @mbedtls_ecp_is_zero(ptr noundef %16)
  %31 = icmp ne i32 %30, 0
  br i1 %31, label %32, label %33

32:                                               ; preds = %29
  store i32 -20352, ptr %15, align 4, !tbaa !3
  br label %43

33:                                               ; preds = %29
  br label %34

34:                                               ; preds = %33
  %35 = load ptr, ptr %9, align 8, !tbaa !10
  %36 = getelementptr inbounds nuw %struct.mbedtls_ecp_point, ptr %16, i32 0, i32 0
  %37 = call i32 @mbedtls_mpi_copy(ptr noundef %35, ptr noundef %36)
  store i32 %37, ptr %15, align 4, !tbaa !3
  %38 = icmp ne i32 %37, 0
  br i1 %38, label %39, label %40

39:                                               ; preds = %34
  br label %43

40:                                               ; preds = %34
  br label %41

41:                                               ; preds = %40
  br label %42

42:                                               ; preds = %41
  br label %43

43:                                               ; preds = %42, %39, %32, %26
  call void @mbedtls_ecp_point_free(ptr noundef %16)
  %44 = load i32, ptr %15, align 4, !tbaa !3
  call void @llvm.lifetime.end.p0(i64 48, ptr %16) #4
  call void @llvm.lifetime.end.p0(i64 4, ptr %15) #4
  ret i32 %44
}

; Function Attrs: nounwind uwtable
define hidden i32 @mbedtls_ecdh_compute_shared(ptr noundef %0, ptr noundef %1, ptr noundef %2, ptr noundef %3, ptr noundef %4, ptr noundef %5) #0 {
  %7 = alloca ptr, align 8
  %8 = alloca ptr, align 8
  %9 = alloca ptr, align 8
  %10 = alloca ptr, align 8
  %11 = alloca ptr, align 8
  %12 = alloca ptr, align 8
  store ptr %0, ptr %7, align 8, !tbaa !7
  store ptr %1, ptr %8, align 8, !tbaa !10
  store ptr %2, ptr %9, align 8, !tbaa !12
  store ptr %3, ptr %10, align 8, !tbaa !10
  store ptr %4, ptr %11, align 8, !tbaa !14
  store ptr %5, ptr %12, align 8, !tbaa !14
  %13 = load ptr, ptr %7, align 8, !tbaa !7
  %14 = load ptr, ptr %8, align 8, !tbaa !10
  %15 = load ptr, ptr %9, align 8, !tbaa !12
  %16 = load ptr, ptr %10, align 8, !tbaa !10
  %17 = load ptr, ptr %11, align 8, !tbaa !14
  %18 = load ptr, ptr %12, align 8, !tbaa !14
  %19 = call i32 @ecdh_compute_shared_restartable(ptr noundef %13, ptr noundef %14, ptr noundef %15, ptr noundef %16, ptr noundef %17, ptr noundef %18, ptr noundef null)
  ret i32 %19
}

; Function Attrs: nounwind uwtable
define internal i32 @ecdh_calc_secret_internal(ptr noundef %0, ptr noundef %1, ptr noundef %2, i64 noundef %3, ptr noundef %4, ptr noundef %5, i32 noundef %6) #0 {
  %8 = alloca i32, align 4
  %9 = alloca ptr, align 8
  %10 = alloca ptr, align 8
  %11 = alloca ptr, align 8
  %12 = alloca i64, align 8
  %13 = alloca ptr, align 8
  %14 = alloca ptr, align 8
  %15 = alloca i32, align 4
  %16 = alloca i32, align 4
  %17 = alloca i32, align 4
  store ptr %0, ptr %9, align 8, !tbaa !21
  store ptr %1, ptr %10, align 8, !tbaa !23
  store ptr %2, ptr %11, align 8, !tbaa !25
  store i64 %3, ptr %12, align 8, !tbaa !27
  store ptr %4, ptr %13, align 8, !tbaa !14
  store ptr %5, ptr %14, align 8, !tbaa !14
  store i32 %6, ptr %15, align 4, !tbaa !3
  call void @llvm.lifetime.start.p0(i64 4, ptr %16) #4
  store i32 -110, ptr %16, align 4, !tbaa !3
  %18 = load ptr, ptr %9, align 8, !tbaa !21
  %19 = icmp eq ptr %18, null
  br i1 %19, label %26, label %20

20:                                               ; preds = %7
  %21 = load ptr, ptr %9, align 8, !tbaa !21
  %22 = getelementptr inbounds nuw %struct.mbedtls_ecdh_context_mbed, ptr %21, i32 0, i32 0
  %23 = getelementptr inbounds nuw %struct.mbedtls_ecp_group, ptr %22, i32 0, i32 6
  %24 = load i64, ptr %23, align 8, !tbaa !29
  %25 = icmp eq i64 %24, 0
  br i1 %25, label %26, label %27

26:                                               ; preds = %20, %7
  store i32 -20352, ptr %8, align 4
  store i32 1, ptr %17, align 4
  br label %83

27:                                               ; preds = %20
  %28 = load ptr, ptr %9, align 8, !tbaa !21
  %29 = getelementptr inbounds nuw %struct.mbedtls_ecdh_context_mbed, ptr %28, i32 0, i32 0
  %30 = load ptr, ptr %9, align 8, !tbaa !21
  %31 = getelementptr inbounds nuw %struct.mbedtls_ecdh_context_mbed, ptr %30, i32 0, i32 4
  %32 = load ptr, ptr %9, align 8, !tbaa !21
  %33 = getelementptr inbounds nuw %struct.mbedtls_ecdh_context_mbed, ptr %32, i32 0, i32 3
  %34 = load ptr, ptr %9, align 8, !tbaa !21
  %35 = getelementptr inbounds nuw %struct.mbedtls_ecdh_context_mbed, ptr %34, i32 0, i32 1
  %36 = load ptr, ptr %13, align 8, !tbaa !14
  %37 = load ptr, ptr %14, align 8, !tbaa !14
  %38 = call i32 @mbedtls_ecdh_compute_shared(ptr noundef %29, ptr noundef %31, ptr noundef %33, ptr noundef %35, ptr noundef %36, ptr noundef %37)
  store i32 %38, ptr %16, align 4, !tbaa !3
  %39 = icmp ne i32 %38, 0
  br i1 %39, label %40, label %42

40:                                               ; preds = %27
  %41 = load i32, ptr %16, align 4, !tbaa !3
  store i32 %41, ptr %8, align 4
  store i32 1, ptr %17, align 4
  br label %83

42:                                               ; preds = %27
  %43 = load ptr, ptr %9, align 8, !tbaa !21
  %44 = getelementptr inbounds nuw %struct.mbedtls_ecdh_context_mbed, ptr %43, i32 0, i32 4
  %45 = call i64 @mbedtls_mpi_size(ptr noundef %44)
  %46 = load i64, ptr %12, align 8, !tbaa !27
  %47 = icmp ugt i64 %45, %46
  br i1 %47, label %48, label %49

48:                                               ; preds = %42
  store i32 -20352, ptr %8, align 4
  store i32 1, ptr %17, align 4
  br label %83

49:                                               ; preds = %42
  %50 = load ptr, ptr %9, align 8, !tbaa !21
  %51 = getelementptr inbounds nuw %struct.mbedtls_ecdh_context_mbed, ptr %50, i32 0, i32 0
  %52 = getelementptr inbounds nuw %struct.mbedtls_ecp_group, ptr %51, i32 0, i32 6
  %53 = load i64, ptr %52, align 8, !tbaa !29
  %54 = udiv i64 %53, 8
  %55 = load ptr, ptr %9, align 8, !tbaa !21
  %56 = getelementptr inbounds nuw %struct.mbedtls_ecdh_context_mbed, ptr %55, i32 0, i32 0
  %57 = getelementptr inbounds nuw %struct.mbedtls_ecp_group, ptr %56, i32 0, i32 6
  %58 = load i64, ptr %57, align 8, !tbaa !29
  %59 = urem i64 %58, 8
  %60 = icmp ne i64 %59, 0
  %61 = zext i1 %60 to i32
  %62 = sext i32 %61 to i64
  %63 = add i64 %54, %62
  %64 = load ptr, ptr %10, align 8, !tbaa !23
  store i64 %63, ptr %64, align 8, !tbaa !27
  %65 = load ptr, ptr %9, align 8, !tbaa !21
  %66 = getelementptr inbounds nuw %struct.mbedtls_ecdh_context_mbed, ptr %65, i32 0, i32 0
  %67 = call i32 @mbedtls_ecp_get_type(ptr noundef %66)
  %68 = icmp eq i32 %67, 2
  br i1 %68, label %69, label %76

69:                                               ; preds = %49
  %70 = load ptr, ptr %9, align 8, !tbaa !21
  %71 = getelementptr inbounds nuw %struct.mbedtls_ecdh_context_mbed, ptr %70, i32 0, i32 4
  %72 = load ptr, ptr %11, align 8, !tbaa !25
  %73 = load ptr, ptr %10, align 8, !tbaa !23
  %74 = load i64, ptr %73, align 8, !tbaa !27
  %75 = call i32 @mbedtls_mpi_write_binary_le(ptr noundef %71, ptr noundef %72, i64 noundef %74)
  store i32 %75, ptr %8, align 4
  store i32 1, ptr %17, align 4
  br label %83

76:                                               ; preds = %49
  %77 = load ptr, ptr %9, align 8, !tbaa !21
  %78 = getelementptr inbounds nuw %struct.mbedtls_ecdh_context_mbed, ptr %77, i32 0, i32 4
  %79 = load ptr, ptr %11, align 8, !tbaa !25
  %80 = load ptr, ptr %10, align 8, !tbaa !23
  %81 = load i64, ptr %80, align 8, !tbaa !27
  %82 = call i32 @mbedtls_mpi_write_binary(ptr noundef %78, ptr noundef %79, i64 noundef %81)
  store i32 %82, ptr %8, align 4
  store i32 1, ptr %17, align 4
  br label %83

83:                                               ; preds = %76, %69, %48, %40, %26
  call void @llvm.lifetime.end.p0(i64 4, ptr %16) #4
  %84 = load i32, ptr %8, align 4
  ret i32 %84
}

; Function Attrs: nounwind uwtable
define hidden i32 @mbedtls_ecdh_calc_secret(ptr noundef %0, ptr noundef %1, ptr noundef %2, i64 noundef %3, ptr noundef %4, ptr noundef %5) #0 {
  %7 = alloca i32, align 4
  %8 = alloca ptr, align 8
  %9 = alloca ptr, align 8
  %10 = alloca ptr, align 8
  %11 = alloca i64, align 8
  %12 = alloca ptr, align 8
  %13 = alloca ptr, align 8
  %14 = alloca i32, align 4
  %15 = alloca i32, align 4
  store ptr %0, ptr %8, align 8, !tbaa !15
  store ptr %1, ptr %9, align 8, !tbaa !23
  store ptr %2, ptr %10, align 8, !tbaa !25
  store i64 %3, ptr %11, align 8, !tbaa !27
  store ptr %4, ptr %12, align 8, !tbaa !14
  store ptr %5, ptr %13, align 8, !tbaa !14
  call void @llvm.lifetime.start.p0(i64 4, ptr %14) #4
  store i32 0, ptr %14, align 4, !tbaa !3
  %16 = load ptr, ptr %8, align 8, !tbaa !15
  %17 = getelementptr inbounds nuw %struct.mbedtls_ecdh_context, ptr %16, i32 0, i32 2
  %18 = load i32, ptr %17, align 8, !tbaa !19
  switch i32 %18, label %29 [
    i32 1, label %19
  ]

19:                                               ; preds = %6
  %20 = load ptr, ptr %8, align 8, !tbaa !15
  %21 = getelementptr inbounds nuw %struct.mbedtls_ecdh_context, ptr %20, i32 0, i32 3
  %22 = load ptr, ptr %9, align 8, !tbaa !23
  %23 = load ptr, ptr %10, align 8, !tbaa !25
  %24 = load i64, ptr %11, align 8, !tbaa !27
  %25 = load ptr, ptr %12, align 8, !tbaa !14
  %26 = load ptr, ptr %13, align 8, !tbaa !14
  %27 = load i32, ptr %14, align 4, !tbaa !3
  %28 = call i32 @ecdh_calc_secret_internal(ptr noundef %21, ptr noundef %22, ptr noundef %23, i64 noundef %24, ptr noundef %25, ptr noundef %26, i32 noundef %27)
  store i32 %28, ptr %7, align 4
  store i32 1, ptr %15, align 4
  br label %30

29:                                               ; preds = %6
  store i32 -20352, ptr %7, align 4
  store i32 1, ptr %15, align 4
  br label %30

30:                                               ; preds = %29, %19
  call void @llvm.lifetime.end.p0(i64 4, ptr %14) #4
  %31 = load i32, ptr %7, align 4
  ret i32 %31
}