; Function Attrs: nounwind uwtable
define hidden i32 @mbedtls_ecdh_calc_secret(ptr noundef %0, ptr noundef captures(none) %1, ptr noundef %2, i64 noundef %3, ptr noundef %4, ptr noundef %5) local_unnamed_addr #1 {
  %7 = alloca %struct.mbedtls_ecp_point, align 8
  %8 = getelementptr inbounds nuw i8, ptr %0, i64 8
  %9 = load i32, ptr %8, align 8, !tbaa !9
  %cond = icmp eq i32 %9, 1
  br i1 %cond, label %10, label %ecdh_calc_secret_internal.exit

10:                                               ; preds = %6
  %11 = getelementptr inbounds nuw i8, ptr %0, i64 16
  %12 = getelementptr inbounds nuw i8, ptr %0, i64 136
  %13 = load i64, ptr %12, align 8, !tbaa !10
  %14 = icmp eq i64 %13, 0
  br i1 %14, label %ecdh_calc_secret_internal.exit, label %15

15:                                               ; preds = %10
  %16 = getelementptr inbounds nuw i8, ptr %0, i64 320
  %17 = getelementptr inbounds nuw i8, ptr %0, i64 272
  %18 = getelementptr inbounds nuw i8, ptr %0, i64 208
  call void @llvm.lifetime.start.p0(i64 48, ptr nonnull %7) #7
  call void @mbedtls_ecp_point_init(ptr noundef nonnull %7) #7
  %19 = call i32 @mbedtls_ecp_mul_restartable(ptr noundef nonnull %11, ptr noundef nonnull %7, ptr noundef nonnull %18, ptr noundef nonnull %17, ptr noundef %4, ptr noundef %5, ptr noundef null) #7
  %.not.i.i.i = icmp eq i32 %19, 0
  br i1 %.not.i.i.i, label %20, label %mbedtls_ecdh_compute_shared.exit.thread.i

20:                                               ; preds = %15
  %21 = call i32 @mbedtls_ecp_is_zero(ptr noundef nonnull %7) #7
  %.not8.i.i.i = icmp eq i32 %21, 0
  br i1 %.not8.i.i.i, label %mbedtls_ecdh_compute_shared.exit.i, label %mbedtls_ecdh_compute_shared.exit.thread.i

mbedtls_ecdh_compute_shared.exit.thread.i:        ; preds = %20, %15
  %.0.i.i.ph.i = phi i32 [ -20352, %20 ], [ %19, %15 ]
  call void @mbedtls_ecp_point_free(ptr noundef nonnull %7) #7
  call void @llvm.lifetime.end.p0(i64 48, ptr nonnull %7) #7
  br label %ecdh_calc_secret_internal.exit

mbedtls_ecdh_compute_shared.exit.i:               ; preds = %20
  %22 = call i32 @mbedtls_mpi_copy(ptr noundef nonnull %16, ptr noundef nonnull %7) #7
  call void @mbedtls_ecp_point_free(ptr noundef nonnull %7) #7
  call void @llvm.lifetime.end.p0(i64 48, ptr nonnull %7) #7
  %.not.i = icmp eq i32 %22, 0
  br i1 %.not.i, label %23, label %ecdh_calc_secret_internal.exit

23:                                               ; preds = %mbedtls_ecdh_compute_shared.exit.i
  %24 = call i64 @mbedtls_mpi_size(ptr noundef nonnull %16) #7
  %25 = icmp ugt i64 %24, %3
  br i1 %25, label %ecdh_calc_secret_internal.exit, label %26

26:                                               ; preds = %23
  %27 = load i64, ptr %12, align 8, !tbaa !10
  %28 = lshr i64 %27, 3
  %29 = and i64 %27, 7
  %30 = icmp ne i64 %29, 0
  %31 = zext i1 %30 to i64
  %32 = add nuw nsw i64 %28, %31
  store i64 %32, ptr %1, align 8, !tbaa !20
  %33 = call i32 @mbedtls_ecp_get_type(ptr noundef nonnull %11) #7
  %34 = icmp eq i32 %33, 2
  %35 = load i64, ptr %1, align 8, !tbaa !20
  br i1 %34, label %36, label %38

36:                                               ; preds = %26
  %37 = call i32 @mbedtls_mpi_write_binary_le(ptr noundef nonnull %16, ptr noundef %2, i64 noundef %35) #7
  br label %ecdh_calc_secret_internal.exit

38:                                               ; preds = %26
  %39 = call i32 @mbedtls_mpi_write_binary(ptr noundef nonnull %16, ptr noundef %2, i64 noundef %35) #7
  br label %ecdh_calc_secret_internal.exit

ecdh_calc_secret_internal.exit:                   ; preds = %38, %36, %23, %mbedtls_ecdh_compute_shared.exit.i, %mbedtls_ecdh_compute_shared.exit.thread.i, %10, %6
  %.0 = phi i32 [ -20352, %6 ], [ %37, %36 ], [ %39, %38 ], [ -20352, %10 ], [ %22, %mbedtls_ecdh_compute_shared.exit.i ], [ -20352, %23 ], [ %.0.i.i.ph.i, %mbedtls_ecdh_compute_shared.exit.thread.i ]
  ret i32 %.0
}